; Function Attrs: mustprogress uwtable
define noalias ptr @lean_st_ref_ptr_eq(ptr noundef readonly captures(none) %0, ptr noundef readonly captures(none) %1, ptr noundef readnone captures(none) %2) local_unnamed_addr #0 {
  %4 = getelementptr inbounds nuw i8, ptr %0, i64 8
  %5 = load ptr, ptr %4, align 8, !tbaa !105
  %6 = getelementptr inbounds nuw i8, ptr %1, i64 8
  %7 = load ptr, ptr %6, align 8, !tbaa !105
  tail call void @lean_inc_heartbeat()
  %8 = tail call noalias ptr @mi_malloc_small(i64 noundef 24) #27
  %9 = icmp eq ptr %8, null
  br i1 %9, label %10, label %_ZN4lean15io_result_mk_okEP11lean_object.exit

10:                                               ; preds = %3
  tail call void @lean_internal_panic_out_of_memory() #28
  unreachable

_ZN4lean15io_result_mk_okEP11lean_object.exit:    ; preds = %3
  %11 = icmp eq ptr %5, %7
  %12 = select i1 %11, ptr inttoptr (i64 3 to ptr), ptr inttoptr (i64 1 to ptr)
  %13 = getelementptr inbounds nuw i8, ptr %8, i64 4
  store i32 1, ptr %8, align 4, !tbaa !7
  store i32 131096, ptr %13, align 4
  %14 = getelementptr inbounds nuw i8, ptr %8, i64 8
  store ptr %12, ptr %14, align 8, !tbaa !3
  %15 = getelementptr inbounds nuw i8, ptr %8, i64 16
  store ptr inttoptr (i64 1 to ptr), ptr %15, align 8, !tbaa !3
  ret ptr %8
}